(dp1
I1
I1
sI2
I1
sI3
I2
sI4
I3
sI5
I5
sI6
I8
sI7
I13
sI8
I21
sI9
I34
sI10
I55
sI11
I89
sI12
I144
sI13
I233
sI14
I377
sI15
I610
sI16
I987
sI17
I1597
sI18
I2584
sI19
I4181
sI20
I6765
sI21
I10946
sI22
I17711
sI23
I28657
sI24
I46368
sI25
I75025
sI26
I121393
sI27
I196418
sI28
I317811
sI29
I514229
sI30
I832040
sI31
I1346269
sI32
I2178309
sI33
I3524578
sI34
I5702887
sI35
I9227465
sI36
I14930352
sI37
I24157817
sI38
I39088169
sI39
I63245986
sI40
I102334155
sI41
I165580141
sI42
I267914296
sI43
I433494437
sI44
I701408733
sI45
I1134903170
sI46
I1836311903
sI47
L2971215073L
sI48
L4807526976L
sI49
L7778742049L
sI50
L12586269025L
sI51
L20365011074L
sI52
L32951280099L
sI53
L53316291173L
sI54
L86267571272L
sI55
L139583862445L
sI56
L225851433717L
sI57
L365435296162L
sI58
L591286729879L
sI59
L956722026041L
sI60
L1548008755920L
sI61
L2504730781961L
sI62
L4052739537881L
sI63
L6557470319842L
sI64
L10610209857723L
sI65
L17167680177565L
sI66
L27777890035288L
sI67
L44945570212853L
sI68
L72723460248141L
sI69
L117669030460994L
sI70
L190392490709135L
sI71
L308061521170129L
sI72
L498454011879264L
sI73
L806515533049393L
sI74
L1304969544928657L
sI75
L2111485077978050L
sI76
L3416454622906707L
sI77
L5527939700884757L
sI78
L8944394323791464L
sI79
L14472334024676221L
sI80
L23416728348467685L
sI81
L37889062373143906L
sI82
L61305790721611591L
sI83
L99194853094755497L
sI84
L160500643816367088L
sI85
L259695496911122585L
sI86
L420196140727489673L
sI87
L679891637638612258L
sI88
L1100087778366101931L
sI89
L1779979416004714189L
sI90
L2880067194370816120L
sI91
L4660046610375530309L
sI92
L7540113804746346429L
sI93
L12200160415121876738L
sI94
L19740274219868223167L
sI95
L31940434634990099905L
sI96
L51680708854858323072L
sI97
L83621143489848422977L
sI98
L135301852344706746049L
sI99
L218922995834555169026L
sI100
L354224848179261915075L
sI101
L573147844013817084101L
sI102
L927372692193078999176L
sI103
L1500520536206896083277L
sI104
L2427893228399975082453L
sI105
L3928413764606871165730L
sI106
L6356306993006846248183L
sI107
L10284720757613717413913L
sI108
L16641027750620563662096L
sI109
L26925748508234281076009L
sI110
L43566776258854844738105L
sI111
L70492524767089125814114L
sI112
L114059301025943970552219L
sI113
L184551825793033096366333L
sI114
L298611126818977066918552L
sI115
L483162952612010163284885L
sI116
L781774079430987230203437L
sI117
L1264937032042997393488322L
sI118
L2046711111473984623691759L
sI119
L3311648143516982017180081L
sI120
L5358359254990966640871840L
sI121
L8670007398507948658051921L
sI122
L14028366653498915298923761L
sI123
L22698374052006863956975682L
sI124
L36726740705505779255899443L
sI125
L59425114757512643212875125L
sI126
L96151855463018422468774568L
sI127
L155576970220531065681649693L
sI128
L251728825683549488150424261L
sI129
L407305795904080553832073954L
sI130
L659034621587630041982498215L
sI131
L1066340417491710595814572169L
sI132
L1725375039079340637797070384L
sI133
L2791715456571051233611642553L
sI134
L4517090495650391871408712937L
sI135
L7308805952221443105020355490L
sI136
L11825896447871834976429068427L
sI137
L19134702400093278081449423917L
sI138
L30960598847965113057878492344L
sI139
L50095301248058391139327916261L
sI140
L81055900096023504197206408605L
sI141
L131151201344081895336534324866L
sI142
L212207101440105399533740733471L
sI143
L343358302784187294870275058337L
sI144
L555565404224292694404015791808L
sI145
L898923707008479989274290850145L
sI146
L1454489111232772683678306641953L
sI147
L2353412818241252672952597492098L
sI148
L3807901929474025356630904134051L
sI149
L6161314747715278029583501626149L
sI150
L9969216677189303386214405760200L
sI151
L16130531424904581415797907386349L
sI152
L26099748102093884802012313146549L
sI153
L42230279526998466217810220532898L
sI154
L68330027629092351019822533679447L
sI155
L110560307156090817237632754212345L
sI156
L178890334785183168257455287891792L
sI157
L289450641941273985495088042104137L
sI158
L468340976726457153752543329995929L
sI159
L757791618667731139247631372100066L
sI160
L1226132595394188293000174702095995L
sI161
L1983924214061919432247806074196061L
sI162
L3210056809456107725247980776292056L
sI163
L5193981023518027157495786850488117L
sI164
L8404037832974134882743767626780173L
sI165
L13598018856492162040239554477268290L
sI166
L22002056689466296922983322104048463L
sI167
L35600075545958458963222876581316753L
sI168
L57602132235424755886206198685365216L
sI169
L93202207781383214849429075266681969L
sI170
L150804340016807970735635273952047185L
sI171
L244006547798191185585064349218729154L
sI172
L394810887814999156320699623170776339L
sI173
L638817435613190341905763972389505493L
sI174
L1033628323428189498226463595560281832L
sI175
L1672445759041379840132227567949787325L
sI176
L2706074082469569338358691163510069157L
sI177
L4378519841510949178490918731459856482L
sI178
L7084593923980518516849609894969925639L
sI179
L11463113765491467695340528626429782121L
sI180
L18547707689471986212190138521399707760L
sI181
L30010821454963453907530667147829489881L
sI182
L48558529144435440119720805669229197641L
sI183
L78569350599398894027251472817058687522L
sI184
L127127879743834334146972278486287885163L
sI185
L205697230343233228174223751303346572685L
sI186
L332825110087067562321196029789634457848L
sI187
L538522340430300790495419781092981030533L
sI188
L871347450517368352816615810882615488381L
sI189
L1409869790947669143312035591975596518914L
sI190
L2281217241465037496128651402858212007295L
sI191
L3691087032412706639440686994833808526209L
sI192
L5972304273877744135569338397692020533504L
sI193
L9663391306290450775010025392525829059713L
sI194
L15635695580168194910579363790217849593217L
sI195
L25299086886458645685589389182743678652930L
sI196
L40934782466626840596168752972961528246147L
sI197
L66233869353085486281758142155705206899077L
sI198
L107168651819712326877926895128666735145224L
sI199
L173402521172797813159685037284371942044301L
sI200
L280571172992510140037611932413038677189525L
sI201
L453973694165307953197296969697410619233826L
sI202
L734544867157818093234908902110449296423351L
sI203
L1188518561323126046432205871807859915657177L
sI204
L1923063428480944139667114773918309212080528L
sI205
L3111581989804070186099320645726169127737705L
sI206
L5034645418285014325766435419644478339818233L
sI207
L8146227408089084511865756065370647467555938L
sI208
L13180872826374098837632191485015125807374171L
sI209
L21327100234463183349497947550385773274930109L
sI210
L34507973060837282187130139035400899082304280L
sI211
L55835073295300465536628086585786672357234389L
sI212
L90343046356137747723758225621187571439538669L
sI213
L146178119651438213260386312206974243796773058L
sI214
L236521166007575960984144537828161815236311727L
sI215
L382699285659014174244530850035136059033084785L
sI216
L619220451666590135228675387863297874269396512L
sI217
L1001919737325604309473206237898433933302481297L
sI218
L1621140188992194444701881625761731807571877809L
sI219
L2623059926317798754175087863660165740874359106L
sI220
L4244200115309993198876969489421897548446236915L
sI221
L6867260041627791953052057353082063289320596021L
sI222
L11111460156937785151929026842503960837766832936L
sI223
L17978720198565577104981084195586024127087428957L
sI224
L29090180355503362256910111038089984964854261893L
sI225
L47068900554068939361891195233676009091941690850L
sI226
L76159080909572301618801306271765994056795952743L
sI227
L123227981463641240980692501505442003148737643593L
sI228
L199387062373213542599493807777207997205533596336L
sI229
L322615043836854783580186309282650000354271239929L
sI230
L522002106210068326179680117059857997559804836265L
sI231
L844617150046923109759866426342507997914076076194L
sI232
L1366619256256991435939546543402365995473880912459L
sI233
L2211236406303914545699412969744873993387956988653L
sI234
L3577855662560905981638959513147239988861837901112L
sI235
L5789092068864820527338372482892113982249794889765L
sI236
L9366947731425726508977331996039353971111632790877L
sI237
L15156039800290547036315704478931467953361427680642L
sI238
L24522987531716273545293036474970821924473060471519L
sI239
L39679027332006820581608740953902289877834488152161L
sI240
L64202014863723094126901777428873111802307548623680L
sI241
L103881042195729914708510518382775401680142036775841L
sI242
L168083057059453008835412295811648513482449585399521L
sI243
L271964099255182923543922814194423915162591622175362L
sI244
L440047156314635932379335110006072428645041207574883L
sI245
L712011255569818855923257924200496343807632829750245L
sI246
L1152058411884454788302593034206568772452674037325128L
sI247
L1864069667454273644225850958407065116260306867075373L
sI248
L3016128079338728432528443992613633888712980904400501L
sI249
L4880197746793002076754294951020699004973287771475874L
sI250
L7896325826131730509282738943634332893686268675876375L
sI251
L12776523572924732586037033894655031898659556447352249L
sI252
L20672849399056463095319772838289364792345825123228624L
sI253
L33449372971981195681356806732944396691005381570580873L
sI254
L54122222371037658776676579571233761483351206693809497L
sI255
L87571595343018854458033386304178158174356588264390370L
sI256
L141693817714056513234709965875411919657707794958199867L
sI257
L229265413057075367692743352179590077832064383222590237L
sI258
L370959230771131880927453318055001997489772178180790104L
sI259
L600224643828207248620196670234592075321836561403380341L
sI260
L971183874599339129547649988289594072811608739584170445L
sI261
L1571408518427546378167846658524186148133445300987550786L
sI262
L2542592393026885507715496646813780220945054040571721231L
sI263
L4114000911454431885883343305337966369078499341559272017L
sI264
L6656593304481317393598839952151746590023553382130993248L
sI265
L10770594215935749279482183257489712959102052723690265265L
sI266
L17427187520417066673081023209641459549125606105821258513L
sI267
L28197781736352815952563206467131172508227658829511523778L
sI268
L45624969256769882625644229676772632057353264935332782291L
sI269
L73822750993122698578207436143903804565580923764844306069L
sI270
L119447720249892581203851665820676436622934188700177088360L
sI271
L193270471243015279782059101964580241188515112465021394429L
sI272
L312718191492907860985910767785256677811449301165198482789L
sI273
L505988662735923140767969869749836918999964413630219877218L
sI274
L818706854228831001753880637535093596811413714795418360007L
sI275
L1324695516964754142521850507284930515811378128425638237225L
sI276
L2143402371193585144275731144820024112622791843221056597232L
sI277
L3468097888158339286797581652104954628434169971646694834457L
sI278
L5611500259351924431073312796924978741056961814867751431689L
sI279
L9079598147510263717870894449029933369491131786514446266146L
sI280
L14691098406862188148944207245954912110548093601382197697835L
sI281
L23770696554372451866815101694984845480039225387896643963981L
sI282
L38461794961234640015759308940939757590587318989278841661816L
sI283
L62232491515607091882574410635924603070626544377175485625797L
sI284
L100694286476841731898333719576864360661213863366454327287613L
sI285
L162926777992448823780908130212788963731840407743629812913410L
sI286
L263621064469290555679241849789653324393054271110084140201023L
sI287
L426547842461739379460149980002442288124894678853713953114433L
sI288
L690168906931029935139391829792095612517948949963798093315456L
sI289
L1116716749392769314599541809794537900642843628817512046429889L
sI290
L1806885656323799249738933639586633513160792578781310139745345L
sI291
L2923602405716568564338475449381171413803636207598822186175234L
sI292
L4730488062040367814077409088967804926964428786380132325920579L
sI293
L7654090467756936378415884538348976340768064993978954512095813L
sI294
L12384578529797304192493293627316781267732493780359086838016392L
sI295
L20038668997554240570909178165665757608500558774338041350112205L
sI296
L32423247527351544763402471792982538876233052554697128188128597L
sI297
L52461916524905785334311649958648296484733611329035169538240802L
sI298
L84885164052257330097714121751630835360966663883732297726369399L
sI299
L137347080577163115432025771710279131845700275212767467264610201L
sI300
L222232244629420445529739893461909967206666939096499764990979600L
sI301
L359579325206583560961765665172189099052367214309267232255589801L
sI302
L581811569836004006491505558634099066259034153405766997246569401L
sI303
L941390895042587567453271223806288165311401367715034229502159202L
sI304
L1523202464878591573944776782440387231570435521120801226748728603L
sI305
L2464593359921179141398048006246675396881836888835835456250887805L
sI306
L3987795824799770715342824788687062628452272409956636682999616408L
sI307
L6452389184720949856740872794933738025334109298792472139250504213L
sI308
L10440185009520720572083697583620800653786381708749108822250120621L
sI309
L16892574194241670428824570378554538679120491007541580961500624834L
sI310
L27332759203762391000908267962175339332906872716290689783750745455L
sI311
L44225333398004061429732838340729878012027363723832270745251370289L
sI312
L71558092601766452430641106302905217344934236440122960529002115744L
sI313
L115783425999770513860373944643635095356961600163955231274253486033L
sI314
L187341518601536966291015050946540312701895836604078191803255601777L
sI315
L303124944601307480151388995590175408058857436768033423077509087810L
sI316
L490466463202844446442404046536715720760753273372111614880764689587L
sI317
L793591407804151926593793042126891128819610710140145037958273777397L
sI318
L1284057871006996373036197088663606849580363983512256652839038466984L
sI319
L2077649278811148299629990130790497978399974693652401690797312244381L
sI320
L3361707149818144672666187219454104827980338677164658343636350711365L
sI321
L5439356428629292972296177350244602806380313370817060034433662955746L
sI322
L8801063578447437644962364569698707634360652047981718378070013667111L
sI323
L14240420007076730617258541919943310440740965418798778412503676622857L
sI324
L23041483585524168262220906489642018075101617466780496790573690289968L
sI325
L37281903592600898879479448409585328515842582885579275203077366912825L
sI326
L60323387178125067141700354899227346590944200352359771993651057202793L
sI327
L97605290770725966021179803308812675106786783237939047196728424115618L
sI328
L157928677948851033162880158208040021697730983590298819190379481318411L
sI329
L255533968719576999184059961516852696804517766828237866387107905434029L
sI330
L413462646668428032346940119724892718502248750418536685577487386752440L
sI331
L668996615388005031531000081241745415306766517246774551964595292186469L
sI332
L1082459262056433063877940200966638133809015267665311237542082678938909L
sI333
L1751455877444438095408940282208383549115781784912085789506677971125378L
sI334
L2833915139500871159286880483175021682924797052577397027048760650064287L
sI335
L4585371016945309254695820765383405232040578837489482816555438621189665L
sI336
L7419286156446180413982701248558426914965375890066879843604199271253952L
sI337
L12004657173391489668678522013941832147005954727556362660159637892443617L
sI338
L19423943329837670082661223262500259061971330617623242503763837163697569L
sI339
L31428600503229159751339745276442091208977285345179605163923475056141186L
sI340
L50852543833066829834000968538942350270948615962802847667687312219838755L
sI341
L82281144336295989585340713815384441479925901307982452831610787275979941L
sI342
L133133688169362819419341682354326791750874517270785300499298099495818696L
sI343
L215414832505658809004682396169711233230800418578767753330908886771798637L
sI344
L348548520675021628424024078524038024981674935849553053830206986267617333L
sI345
L563963353180680437428706474693749258212475354428320807161115873039415970L
sI346
L912511873855702065852730553217787283194150290277873860991322859307033303L
sI347
L1476475227036382503281437027911536541406625644706194668152438732346449273L
sI348
L2388987100892084569134167581129323824600775934984068529143761591653482576L
sI349
L3865462327928467072415604609040860366007401579690263197296200323999931849L
sI350
L6254449428820551641549772190170184190608177514674331726439961915653414425L
sI351
L10119911756749018713965376799211044556615579094364594923736162239653346274L
sI352
L16374361185569570355515148989381228747223756609038926650176124155306760699L
sI353
L26494272942318589069480525788592273303839335703403521573912286394960106973L
sI354
L42868634127888159424995674777973502051063092312442448224088410550266867672L
sI355
L69362907070206748494476200566565775354902428015845969798000696945226974645L
sI356
L112231541198094907919471875344539277405965520328288418022089107495493842317L
sI357
L181594448268301656413948075911105052760867948344134387820089804440720816962L
sI358
L293825989466396564333419951255644330166833468672422805842178911936214659279L
sI359
L475420437734698220747368027166749382927701417016557193662268716376935476241L
sI360
L769246427201094785080787978422393713094534885688979999504447628313150135520L
sI361
L1244666864935793005828156005589143096022236302705537193166716344690085611761L
sI362
L2013913292136887790908943984011536809116771188394517192671163973003235747281L
sI363
L3258580157072680796737099989600679905139007491100054385837880317693321359042L
sI364
L5272493449209568587646043973612216714255778679494571578509044290696557106323L
sI365
L8531073606282249384383143963212896619394786170594625964346924608389878465365L
sI366
L13803567055491817972029187936825113333650564850089197542855968899086435571688L
sI367
L22334640661774067356412331900038009953045351020683823507202893507476314037053L
sI368
L36138207717265885328441519836863123286695915870773021050058862406562749608741L
sI369
L58472848379039952684853851736901133239741266891456844557261755914039063645794L
sI370
L94611056096305838013295371573764256526437182762229865607320618320601813254535L
sI371
L153083904475345790698149223310665389766178449653686710164582374234640876900329L
sI372
L247694960571651628711444594884429646292615632415916575771902992555242690154864L
sI373
L400778865046997419409593818195095036058794082069603285936485366789883567055193L
sI374
L648473825618649048121038413079524682351409714485519861708388359345126257210057L
sI375
L1049252690665646467530632231274619718410203796555123147644873726135009824265250L
sI376
L1697726516284295515651670644354144400761613511040643009353262085480136081475307L
sI377
L2746979206949941983182302875628764119171817307595766156998135811615145905740557L
sI378
L4444705723234237498833973519982908519933430818636409166351397897095281987215864L
sI379
L7191684930184179482016276395611672639105248126232175323349533708710427892956421L
sI380
L11636390653418416980850249915594581159038678944868584489700931605805709880172285L
sI381
L18828075583602596462866526311206253798143927071100759813050465314516137773128706L
sI382
L30464466237021013443716776226800834957182606015969344302751396920321847653300991L
sI383
L49292541820623609906583302538007088755326533087070104115801862234837985426429697L
sI384
L79757008057644623350300078764807923712509139103039448418553259155159833079730688L
sI385
L129049549878268233256883381302815012467835672190109552534355121389997818506160385L
sI386
L208806557935912856607183460067622936180344811293149000952908380545157651585891073L
sI387
L337856107814181089864066841370437948648180483483258553487263501935155470092051458L
sI388
L546662665750093946471250301438060884828525294776407554440171882480313121677942531L
sI389
L884518773564275036335317142808498833476705778259666107927435384415468591769993989L
sI390
L1431181439314368982806567444246559718305231073036073662367607266895781713447936520L
sI391
L2315700212878644019141884587055058551781936851295739770295042651311250305217930509L
sI392
L3746881652193013001948452031301618270087167924331813432662649918207032018665867029L
sI393
L6062581865071657021090336618356676821869104775627553202957692569518282323883797538L
sI394
L9809463517264670023038788649658295091956272699959366635620342487725314342549664567L
sI395
L15872045382336327044129125268014971913825377475586919838578035057243596666433462105L
sI396
L25681508899600997067167913917673267005781650175546286474198377544968911008983126672L
sI397
L41553554281937324111297039185688238919607027651133206312776412602212507675416588777L
sI398
L67235063181538321178464953103361505925388677826679492786974790147181418684399715449L
sI399
L108788617463475645289761992289049744844995705477812699099751202749393926359816304226L
sI400
L176023680645013966468226945392411250770384383304492191886725992896575345044216019675L
sI401
L284812298108489611757988937681460995615380088782304890986477195645969271404032323901L
sI402
L460835978753503578226215883073872246385764472086797082873203188542544616448248343576L
sI403
L745648276861993189984204820755333242001144560869101973859680384188513887852280667477L
sI404
L1206484255615496768210420703829205488386909032955899056732883572731058504300529011053L
sI405
L1952132532477489958194625524584538730388053593825001030592563956919572392152809678530L
sI406
L3158616788092986726405046228413744218774962626780900087325447529650630896453338689583L
sI407
L5110749320570476684599671752998282949163016220605901117918011486570203288606148368113L
sI408
L8269366108663463411004717981412027167937978847386801205243459016220834185059487057696L
sI409
L13380115429233940095604389734410310117100995067992702323161470502791037473665635425809L
sI410
L21649481537897403506609107715822337285038973915379503528404929519011871658725122483505L
sI411
L35029596967131343602213497450232647402139968983372205851566400021802909132390757909314L
sI412
L56679078505028747108822605166054984687178942898751709379971329540814780791115880392819L
sI413
L91708675472160090711036102616287632089318911882123915231537729562617689923506638302133L
sI414
L148387753977188837819858707782342616776497854780875624611509059103432470714622518694952L
sI415
L240096429449348928530894810398630248865816766662999539843046788666050160638129156997085L
sI416
L388484183426537766350753518180972865642314621443875164454555847769482631352751675692037L
sI417
L628580612875886694881648328579603114508131388106874704297602636435532791990880832689122L
sI418
L1017064796302424461232401846760575980150446009550749868752158484205015423343632508381159L
sI419
L1645645409178311156114050175340179094658577397657624573049761120640548215334513341070281L
sI420
L2662710205480735617346452022100755074809023407208374441801919604845563638678145849451440L
sI421
L4308355614659046773460502197440934169467600804865999014851680725486111854012659190521721L
sI422
L6971065820139782390806954219541689244276624212074373456653600330331675492690805039973161L
sI423
L11279421434798829164267456416982623413744225016940372471505281055817787346703464230494882L
sI424
L18250487254938611555074410636524312658020849229014745928158881386149462839394269270468043L
sI425
L29529908689737440719341867053506936071765074245955118399664162441967250186097733500962925L
sI426
L47780395944676052274416277690031248729785923474969864327823043828116713025492002771430968L
sI427
L77310304634413492993758144743538184801550997720924982727487206270083963211589736272393893L
sI428
L125090700579089545268174422433569433531336921195894847055310250098200676237081739043824861L
sI429
L202401005213503038261932567177107618332887918916819829782797456368284639448671475316218754L
sI430
L327491705792592583530106989610677051864224840112714676838107706466485315685753214360043615L
sI431
L529892711006095621792039556787784670197112759029534506620905162834769955134424689676262369L
sI432
L857384416798688205322146546398461722061337599142249183459012869301255270820177904036305984L
sI433
L1387277127804783827114186103186246392258450358171783690079918032136025225954602593712568353L
sI434
L2244661544603472032436332649584708114319787957314032873538930901437280496774780497748874337L
sI435
L3631938672408255859550518752770954506578238315485816563618848933573305722729383091461442690L
sI436
L5876600217011727891986851402355662620898026272799849437157779835010586219504163589210317027L
sI437
L9508538889419983751537370155126617127476264588285666000776628768583891942233546680671759717L
sI438
L15385139106431711643524221557482279748374290861085515437934408603594478161737710269882076744L
sI439
L24893677995851695395061591712608896875850555449371181438711037372178370103971256950553836461L
sI440
L40278817102283407038585813270091176624224846310456696876645445975772848265708967220435913205L
sI441
L65172495098135102433647404982700073500075401759827878315356483347951218369680224170989749666L
sI442
L105451312200418509472233218252791250124300248070284575192001929323724066635389191391425662871L
sI443
L170623807298553611905880623235491323624375649830112453507358412671675285005069415562415412537L
sI444
L276075119498972121378113841488282573748675897900397028699360341995399351640458606953841075408L
sI445
L446698926797525733283994464723773897373051547730509482206718754667074636645528022516256487945L
sI446
L722774046296497854662108306212056471121727445630906510906079096662473988285986629470097563353L
sI447
L1169472973094023587946102770935830368494778993361415993112797851329548624931514651986354051298L
sI448
L1892247019390521442608211077147886839616506438992322504018876947992022613217501281456451614651L
sI449
L3061719992484545030554313848083717208111285432353738497131674799321571238149015933442805665949L
sI450
L4953967011875066473162524925231604047727791871346061001150551747313593851366517214899257280600L
sI451
L8015687004359611503716838773315321255839077303699799498282226546635165089515533148342062946549L
sI452
L12969654016234677976879363698546925303566869175045860499432778293948758940882050363241320227149L
sI453
L20985341020594289480596202471862246559405946478745659997715004840583924030397583511583383173698L
sI454
L33954995036828967457475566170409171862972815653791520497147783134532682971279633874824703400847L
sI455
L54940336057423256938071768642271418422378762132537180494862787975116607001677217386408086574545L
sI456
L88895331094252224395547334812680590285351577786328700992010571109649289972956851261232789975392L
sI457
L143835667151675481333619103454952008707730339918865881486873359084765896974634068647640876549937L
sI458
L232730998245927705729166438267632598993081917705194582478883930194415186947590919908873666525329L
sI459
L376566665397603187062785541722584607700812257624060463965757289279181083922224988556514543075266L
sI460
L609297663643530892791951979990217206693894175329255046444641219473596270869815908465388209600595L
sI461
L985864329041134079854737521712801814394706432953315510410398508752777354792040897021902752675861L
sI462
L1595161992684664972646689501703019021088600608282570556855039728226373625661856805487290962276456L
sI463
L2581026321725799052501427023415820835483307041235886067265438236979150980453897702509193714952317L
sI464
L4176188314410464025148116525118839856571907649518456624120477965205524606115754507996484677228773L
sI465
L6757214636136263077649543548534660692055214690754342691385916202184675586569652210505678392181090L
sI466
L10933402950546727102797660073653500548627122340272799315506394167390200192685406718502163069409863L
sI467
L17690617586682990180447203622188161240682337031027142006892310369574875779255058929007841461590953L
sI468
L28624020537229717283244863695841661789309459371299941322398704536965075971940465647510004531000816L
sI469
L46314638123912707463692067318029823029991796402327083329291014906539951751195524576517845992591769L
sI470
L74938658661142424746936931013871484819301255773627024651689719443505027723135990224027850523592585L
sI471
L121253296785055132210628998331901307849293052175954107980980734350044979474331514800545696516184354L
sI472
L196191955446197556957565929345772792668594307949581132632670453793550007197467505024573547039776939L
sI473
L317445252231252689168194927677674100517887360125535240613651188143594986671799019825119243555961293L
sI474
L513637207677450246125760857023446893186481668075116373246321641937144993869266524849692790595738232L
sI475
L831082459908702935293955784701120993704369028200651613859972830080739980541065544674812034151699525L
sI476
L1344719667586153181419716641724567886890850696275767987106294472017884974410332069524504824747437757L
sI477
L2175802127494856116713672426425688880595219724476419600966267302098624954951397614199316858899137282L
sI478
L3520521795081009298133389068150256767486070420752187588072561774116509929361729683723821683646575039L
sI479
L5696323922575865414847061494575945648081290145228607189038829076215134884313127297923138542545712321L
sI480
L9216845717656874712980450562726202415567360565980794777111390850331644813674856981646960226192287360L
sI481
L14913169640232740127827512057302148063648650711209401966150219926546779697987984279570098768737999681L
sI482
L24130015357889614840807962620028350479216011277190196743261610776878424511662841261217058994930287041L
sI483
L39043184998122354968635474677330498542864661988399598709411830703425204209650825540787157763668286722L
sI484
L63173200356011969809443437297358849022080673265589795452673441480303628721313666802004216758598573763L
sI485
L102216385354134324778078911974689347564945335253989394162085272183728832930964492342791374522266860485L
sI486
L165389585710146294587522349272048196587026008519579189614758713664032461652278159144795591280865434248L
sI487
L267605971064280619365601261246737544151971343773568583776843985847761294583242651487586965803132294733L
sI488
L432995556774426913953123610518785740738997352293147773391602699511793756235520810632382557083997728981L
sI489
L700601527838707533318724871765523284890968696066716357168446685359555050818763462119969522887130023714L
sI490
L1133597084613134447271848482284309025629966048359864130560049384871348807054284272752352079971127752695L
sI491
L1834198612451841980590573354049832310520934744426580487728496070230903857873047734872321602858257776409L
sI492
L2967795697064976427862421836334141336150900792786444618288545455102252664927332007624673682829385529104L
sI493
L4801994309516818408452995190383973646671835537213025106017041525333156522800379742496995285687643305513L
sI494
L7769790006581794836315417026718114982822736329999469724305586980435409187727711750121668968517028834617L
sI495
L12571784316098613244768412217102088629494571867212494830322628505768565710528091492618664254204672140130L
sI496
L20341574322680408081083829243820203612317308197211964554628215486203974898255803242740333222721700974747L
sI497
L32913358638779021325852241460922292241811880064424459384950843991972540608783894735358997476926373114877L
sI498
L53254932961459429406936070704742495854129188261636423939579059478176515507039697978099330699648074089624L
sI499
L86168291600238450732788312165664788095941068326060883324529903470149056115823592713458328176574447204501L
sI500
L139423224561697880139724382870407283950070256587697307264108962948325571622863290691557658876222521294125L
s.